target datalayout = "e-m:e-p270:32:32-p271:32:32-p272:64:64-i64:64-i128:128-f80:128-n8:16:32:64-S128"
target triple = "x86_64-pc-linux-gnu"

@WebPMultARGBRow = hidden global ptr null, align 8

; Function Attrs: nounwind uwtable
define hidden void @WebPMultARGBRows(ptr noundef %0, i32 noundef %1, i32 noundef %2, i32 noundef %3, i32 noundef %4) #0 {
  %6 = alloca ptr, align 8
  %7 = alloca i32, align 4
  %8 = alloca i32, align 4
  %9 = alloca i32, align 4
  %10 = alloca i32, align 4
  %11 = alloca i32, align 4
  store ptr %0, ptr %6, align 8, !tbaa !13
  store i32 %1, ptr %7, align 4, !tbaa !8
  store i32 %2, ptr %8, align 4, !tbaa !8
  store i32 %3, ptr %9, align 4, !tbaa !8
  store i32 %4, ptr %10, align 4, !tbaa !8
  call void @llvm.lifetime.start.p0(i64 4, ptr %11) #5
  store i32 0, ptr %11, align 4, !tbaa !8
  br label %12

12:                                               ; preds = %25, %5
  %13 = load i32, ptr %11, align 4, !tbaa !8
  %14 = load i32, ptr %9, align 4, !tbaa !8
  %15 = icmp slt i32 %13, %14
  br i1 %15, label %16, label %28

16:                                               ; preds = %12
  %17 = load ptr, ptr @WebPMultARGBRow, align 8, !tbaa !16
  %18 = load ptr, ptr %6, align 8, !tbaa !13
  %19 = load i32, ptr %8, align 4, !tbaa !8
  %20 = load i32, ptr %10, align 4, !tbaa !8
  call void %17(ptr noundef %18, i32 noundef %19, i32 noundef %20)
  %21 = load i32, ptr %7, align 4, !tbaa !8
  %22 = load ptr, ptr %6, align 8, !tbaa !13
  %23 = sext i32 %21 to i64
  %24 = getelementptr inbounds i8, ptr %22, i64 %23
  store ptr %24, ptr %6, align 8, !tbaa !13
  br label %25

25:                                               ; preds = %16
  %26 = load i32, ptr %11, align 4, !tbaa !8
  %27 = add nsw i32 %26, 1
  store i32 %27, ptr %11, align 4, !tbaa !8
  br label %12, !llvm.loop !17

28:                                               ; preds = %12
  call void @llvm.lifetime.end.p0(i64 4, ptr %11) #5
  ret void
}