; Function Attrs: nounwind uwtable
define hidden void @WebPMultARGBRows(ptr noundef %0, i32 noundef %1, i32 noundef %2, i32 noundef %3, i32 noundef %4) local_unnamed_addr #1 {
  %6 = icmp sgt i32 %3, 0
  br i1 %6, label %.lr.ph, label %._crit_edge

.lr.ph:                                           ; preds = %5
  %7 = sext i32 %1 to i64
  br label %8

8:                                                ; preds = %.lr.ph, %8
  %.09 = phi i32 [ 0, %.lr.ph ], [ %11, %8 ]
  %.078 = phi ptr [ %0, %.lr.ph ], [ %10, %8 ]
  %9 = load ptr, ptr @WebPMultARGBRow, align 8, !tbaa !11
  tail call void %9(ptr noundef %.078, i32 noundef %2, i32 noundef %4) #5
  %10 = getelementptr inbounds i8, ptr %.078, i64 %7
  %11 = add nuw nsw i32 %.09, 1
  %exitcond.not = icmp eq i32 %11, %3
  br i1 %exitcond.not, label %._crit_edge, label %8, !llvm.loop !13

._crit_edge:                                      ; preds = %8, %5
  ret void
}